target datalayout = "e-m:e-p270:32:32-p271:32:32-p272:64:64-i64:64-i128:128-f80:128-n8:16:32:64-S128"
target triple = "x86_64-pc-linux-gnu"

%struct.s_p_hashtbl = type { %struct.re_pattern_buffer, [173 x ptr] }
%struct.re_pattern_buffer = type { ptr, i64, i64, i64, ptr, ptr, i64, i8 }
%struct.s_p_values = type { ptr, i32, i32, i32, ptr, ptr, ptr, ptr }

@.str.15 = private unnamed_addr constant [42 x i8] c"%s: Parsing error at unrecognized key: %s\00", align 1
@__func__.s_p_parse_pair_with_op = private unnamed_addr constant [23 x i8] c"s_p_parse_pair_with_op\00", align 1
@.str.16 = private unnamed_addr constant [37 x i8] c"%s: Value pointer is NULL for key %s\00", align 1
@.str.17 = private unnamed_addr constant [35 x i8] c"Parse error in data for key %s: %s\00", align 1

; Function Attrs: nounwind uwtable
define internal i32 @_conf_hashtbl_index(ptr noundef %0) #0 {
  %2 = alloca ptr, align 8
  %3 = alloca i32, align 4
  %4 = alloca i32, align 4
  %5 = alloca i32, align 4
  store ptr %0, ptr %2, align 8
  call void @llvm.lifetime.start.p0(i64 4, ptr %3) #9
  store i32 0, ptr %3, align 4
  br label %6

6:                                                ; preds = %25, %1
  %7 = load ptr, ptr %2, align 8
  %8 = load i8, ptr %7, align 1
  %9 = sext i8 %8 to i32
  %10 = icmp ne i32 %9, 0
  br i1 %10, label %11, label %28

11:                                               ; preds = %6
  call void @llvm.lifetime.start.p0(i64 4, ptr %4) #9
  %12 = call ptr @__ctype_tolower_loc() #10
  %13 = load ptr, ptr %12, align 8
  %14 = load ptr, ptr %2, align 8
  %15 = load i8, ptr %14, align 1
  %16 = sext i8 %15 to i32
  %17 = sext i32 %16 to i64
  %18 = getelementptr inbounds i32, ptr %13, i64 %17
  %19 = load i32, ptr %18, align 4
  store i32 %19, ptr %4, align 4
  %20 = load i32, ptr %4, align 4
  store i32 %20, ptr %5, align 4
  call void @llvm.lifetime.end.p0(i64 4, ptr %4) #9
  %21 = load i32, ptr %5, align 4
  %22 = load i32, ptr %3, align 4
  %23 = mul i32 31, %22
  %24 = add i32 %21, %23
  store i32 %24, ptr %3, align 4
  br label %25

25:                                               ; preds = %11
  %26 = load ptr, ptr %2, align 8
  %27 = getelementptr inbounds nuw i8, ptr %26, i32 1
  store ptr %27, ptr %2, align 8
  br label %6, !llvm.loop !56

28:                                               ; preds = %6
  %29 = load i32, ptr %3, align 4
  %30 = urem i32 %29, 173
  call void @llvm.lifetime.end.p0(i64 4, ptr %3) #9
  ret i32 %30
}

; Function Attrs: nounwind uwtable
define internal ptr @_conf_hashtbl_lookup(ptr noundef %0, ptr noundef %1) #0 {
  %3 = alloca ptr, align 8
  %4 = alloca ptr, align 8
  %5 = alloca ptr, align 8
  %6 = alloca i32, align 4
  %7 = alloca ptr, align 8
  %8 = alloca i32, align 4
  store ptr %0, ptr %4, align 8
  store ptr %1, ptr %5, align 8
  call void @llvm.lifetime.start.p0(i64 4, ptr %6) #9
  call void @llvm.lifetime.start.p0(i64 8, ptr %7) #9
  %9 = load ptr, ptr %4, align 8
  %10 = icmp ne ptr %9, null
  br i1 %10, label %12, label %11

11:                                               ; preds = %2
  store ptr null, ptr %3, align 8
  store i32 1, ptr %8, align 4
  br label %39

12:                                               ; preds = %2
  %13 = load ptr, ptr %5, align 8
  %14 = call i32 @_conf_hashtbl_index(ptr noundef %13)
  store i32 %14, ptr %6, align 4
  %15 = load ptr, ptr %4, align 8
  %16 = getelementptr inbounds nuw %struct.s_p_hashtbl, ptr %15, i32 0, i32 1
  %17 = load i32, ptr %6, align 4
  %18 = sext i32 %17 to i64
  %19 = getelementptr inbounds [173 x ptr], ptr %16, i64 0, i64 %18
  %20 = load ptr, ptr %19, align 8
  store ptr %20, ptr %7, align 8
  br label %21

21:                                               ; preds = %34, %12
  %22 = load ptr, ptr %7, align 8
  %23 = icmp ne ptr %22, null
  br i1 %23, label %24, label %38

24:                                               ; preds = %21
  %25 = load ptr, ptr %7, align 8
  %26 = getelementptr inbounds nuw %struct.s_p_values, ptr %25, i32 0, i32 0
  %27 = load ptr, ptr %26, align 8
  %28 = load ptr, ptr %5, align 8
  %29 = call i32 @xstrcasecmp(ptr noundef %27, ptr noundef %28)
  %30 = icmp eq i32 %29, 0
  br i1 %30, label %31, label %33

31:                                               ; preds = %24
  %32 = load ptr, ptr %7, align 8
  store ptr %32, ptr %3, align 8
  store i32 1, ptr %8, align 4
  br label %39

33:                                               ; preds = %24
  br label %34

34:                                               ; preds = %33
  %35 = load ptr, ptr %7, align 8
  %36 = getelementptr inbounds nuw %struct.s_p_values, ptr %35, i32 0, i32 7
  %37 = load ptr, ptr %36, align 8
  store ptr %37, ptr %7, align 8
  br label %21, !llvm.loop !27

38:                                               ; preds = %21
  store ptr null, ptr %3, align 8
  store i32 1, ptr %8, align 4
  br label %39

39:                                               ; preds = %38, %31, %11
  call void @llvm.lifetime.end.p0(i64 8, ptr %7) #9
  call void @llvm.lifetime.end.p0(i64 4, ptr %6) #9
  %40 = load ptr, ptr %3, align 8
  ret ptr %40
}

; Function Attrs: nounwind uwtable
define dso_local i32 @s_p_parse_pair_with_op(ptr noundef %0, ptr noundef %1, ptr noundef %2, i32 noundef %3) #0 {
  %5 = alloca i32, align 4
  %6 = alloca ptr, align 8
  %7 = alloca ptr, align 8
  %8 = alloca ptr, align 8
  %9 = alloca i32, align 4
  %10 = alloca ptr, align 8
  %11 = alloca ptr, align 8
  %12 = alloca ptr, align 8
  %13 = alloca i32, align 4
  store ptr %0, ptr %6, align 8
  store ptr %1, ptr %7, align 8
  store ptr %2, ptr %8, align 8
  store i32 %3, ptr %9, align 4
  call void @llvm.lifetime.start.p0(i64 8, ptr %10) #9
  call void @llvm.lifetime.start.p0(i64 8, ptr %11) #9
  call void @llvm.lifetime.start.p0(i64 8, ptr %12) #9
  %14 = load ptr, ptr %6, align 8
  %15 = load ptr, ptr %7, align 8
  %16 = call ptr @_conf_hashtbl_lookup(ptr noundef %14, ptr noundef %15)
  store ptr %16, ptr %10, align 8
  %17 = icmp eq ptr %16, null
  br i1 %17, label %18, label %22

18:                                               ; preds = %4
  %19 = load ptr, ptr %7, align 8
  %20 = call i32 (ptr, ...) @error(ptr noundef @.str.15, ptr noundef @__func__.s_p_parse_pair_with_op, ptr noundef %19)
  %21 = call ptr @__errno_location() #10
  store i32 22, ptr %21, align 4
  store i32 0, ptr %5, align 4
  store i32 1, ptr %13, align 4
  br label %146

22:                                               ; preds = %4
  %23 = load ptr, ptr %8, align 8
  %24 = icmp ne ptr %23, null
  br i1 %24, label %29, label %25

25:                                               ; preds = %22
  %26 = load ptr, ptr %7, align 8
  %27 = call i32 (ptr, ...) @error(ptr noundef @.str.16, ptr noundef @__func__.s_p_parse_pair_with_op, ptr noundef %26)
  %28 = call ptr @__errno_location() #10
  store i32 22, ptr %28, align 4
  store i32 0, ptr %5, align 4
  store i32 1, ptr %13, align 4
  br label %146

29:                                               ; preds = %22
  %30 = load i32, ptr %9, align 4
  %31 = load ptr, ptr %10, align 8
  %32 = getelementptr inbounds nuw %struct.s_p_values, ptr %31, i32 0, i32 2
  store i32 %30, ptr %32, align 4
  br label %33

33:                                               ; preds = %52, %29
  %34 = load ptr, ptr %8, align 8
  %35 = load i8, ptr %34, align 1
  %36 = sext i8 %35 to i32
  %37 = icmp ne i32 %36, 0
  br i1 %37, label %38, label %50

38:                                               ; preds = %33
  %39 = call ptr @__ctype_b_loc() #10
  %40 = load ptr, ptr %39, align 8
  %41 = load ptr, ptr %8, align 8
  %42 = load i8, ptr %41, align 1
  %43 = sext i8 %42 to i32
  %44 = sext i32 %43 to i64
  %45 = getelementptr inbounds i16, ptr %40, i64 %44
  %46 = load i16, ptr %45, align 2
  %47 = zext i16 %46 to i32
  %48 = and i32 %47, 8192
  %49 = icmp ne i32 %48, 0
  br label %50

50:                                               ; preds = %38, %33
  %51 = phi i1 [ false, %33 ], [ %49, %38 ]
  br i1 %51, label %52, label %55

52:                                               ; preds = %50
  %53 = load ptr, ptr %8, align 8
  %54 = getelementptr inbounds nuw i8, ptr %53, i32 1
  store ptr %54, ptr %8, align 8
  br label %33, !llvm.loop !49

55:                                               ; preds = %50
  %56 = load ptr, ptr %8, align 8
  %57 = load i8, ptr %56, align 1
  %58 = sext i8 %57 to i32
  %59 = icmp eq i32 %58, 34
  br i1 %59, label %60, label %73

60:                                               ; preds = %55
  %61 = load ptr, ptr %8, align 8
  %62 = getelementptr inbounds i8, ptr %61, i64 1
  store ptr %62, ptr %12, align 8
  %63 = load ptr, ptr %12, align 8
  %64 = call ptr @strchr(ptr noundef %63, i32 noundef 34) #12
  store ptr %64, ptr %11, align 8
  %65 = load ptr, ptr %11, align 8
  %66 = icmp eq ptr %65, null
  br i1 %66, label %67, label %72

67:                                               ; preds = %60
  %68 = load ptr, ptr %7, align 8
  %69 = load ptr, ptr %8, align 8
  %70 = call i32 (ptr, ...) @error(ptr noundef @.str.17, ptr noundef %68, ptr noundef %69)
  %71 = call ptr @__errno_location() #10
  store i32 22, ptr %71, align 4
  store i32 0, ptr %5, align 4
  store i32 1, ptr %13, align 4
  br label %146

72:                                               ; preds = %60
  br label %99

73:                                               ; preds = %55
  %74 = load ptr, ptr %8, align 8
  store ptr %74, ptr %12, align 8
  store ptr %74, ptr %11, align 8
  br label %75

75:                                               ; preds = %95, %73
  %76 = load ptr, ptr %11, align 8
  %77 = load i8, ptr %76, align 1
  %78 = sext i8 %77 to i32
  %79 = icmp ne i32 %78, 0
  br i1 %79, label %80, label %93

80:                                               ; preds = %75
  %81 = call ptr @__ctype_b_loc() #10
  %82 = load ptr, ptr %81, align 8
  %83 = load ptr, ptr %11, align 8
  %84 = load i8, ptr %83, align 1
  %85 = sext i8 %84 to i32
  %86 = sext i32 %85 to i64
  %87 = getelementptr inbounds i16, ptr %82, i64 %86
  %88 = load i16, ptr %87, align 2
  %89 = zext i16 %88 to i32
  %90 = and i32 %89, 8192
  %91 = icmp ne i32 %90, 0
  %92 = xor i1 %91, true
  br label %93

93:                                               ; preds = %80, %75
  %94 = phi i1 [ false, %75 ], [ %92, %80 ]
  br i1 %94, label %95, label %98

95:                                               ; preds = %93
  %96 = load ptr, ptr %11, align 8
  %97 = getelementptr inbounds nuw i8, ptr %96, i32 1
  store ptr %97, ptr %11, align 8
  br label %75, !llvm.loop !50

98:                                               ; preds = %93
  br label %99

99:                                               ; preds = %98, %72
  %100 = load ptr, ptr %12, align 8
  %101 = load ptr, ptr %11, align 8
  %102 = load ptr, ptr %12, align 8
  %103 = ptrtoint ptr %101 to i64
  %104 = ptrtoint ptr %102 to i64
  %105 = sub i64 %103, %104
  %106 = call ptr @xstrndup(ptr noundef %100, i64 noundef %105)
  store ptr %106, ptr %8, align 8
  %107 = load ptr, ptr %11, align 8
  %108 = load i8, ptr %107, align 1
  %109 = sext i8 %108 to i32
  %110 = icmp ne i32 %109, 0
  br i1 %110, label %111, label %114

111:                                              ; preds = %99
  %112 = load ptr, ptr %11, align 8
  %113 = getelementptr inbounds nuw i8, ptr %112, i32 1
  store ptr %113, ptr %11, align 8
  br label %114

114:                                              ; preds = %111, %99
  br label %115

115:                                              ; preds = %134, %114
  %116 = load ptr, ptr %11, align 8
  %117 = load i8, ptr %116, align 1
  %118 = sext i8 %117 to i32
  %119 = icmp ne i32 %118, 0
  br i1 %119, label %120, label %132

120:                                              ; preds = %115
  %121 = call ptr @__ctype_b_loc() #10
  %122 = load ptr, ptr %121, align 8
  %123 = load ptr, ptr %11, align 8
  %124 = load i8, ptr %123, align 1
  %125 = sext i8 %124 to i32
  %126 = sext i32 %125 to i64
  %127 = getelementptr inbounds i16, ptr %122, i64 %126
  %128 = load i16, ptr %127, align 2
  %129 = zext i16 %128 to i32
  %130 = and i32 %129, 8192
  %131 = icmp ne i32 %130, 0
  br label %132

132:                                              ; preds = %120, %115
  %133 = phi i1 [ false, %115 ], [ %131, %120 ]
  br i1 %133, label %134, label %137

134:                                              ; preds = %132
  %135 = load ptr, ptr %11, align 8
  %136 = getelementptr inbounds nuw i8, ptr %135, i32 1
  store ptr %136, ptr %11, align 8
  br label %115, !llvm.loop !51

137:                                              ; preds = %132
  %138 = load ptr, ptr %10, align 8
  %139 = load ptr, ptr %8, align 8
  %140 = load ptr, ptr %11, align 8
  %141 = call i32 @_handle_keyvalue_match(ptr noundef %138, ptr noundef %139, ptr noundef %140, ptr noundef %11)
  %142 = icmp eq i32 %141, -1
  br i1 %142, label %143, label %145

143:                                              ; preds = %137
  call void @slurm_xfree(ptr noundef %8)
  %144 = call ptr @__errno_location() #10
  store i32 22, ptr %144, align 4
  store i32 0, ptr %5, align 4
  store i32 1, ptr %13, align 4
  br label %146

145:                                              ; preds = %137
  call void @slurm_xfree(ptr noundef %8)
  store i32 1, ptr %5, align 4
  store i32 1, ptr %13, align 4
  br label %146

146:                                              ; preds = %145, %143, %67, %25, %18
  call void @llvm.lifetime.end.p0(i64 8, ptr %12) #9
  call void @llvm.lifetime.end.p0(i64 8, ptr %11) #9
  call void @llvm.lifetime.end.p0(i64 8, ptr %10) #9
  %147 = load i32, ptr %5, align 4
  ret i32 %147
}