; Function Attrs: nounwind uwtable
define dso_local range(i32 0, 2) i32 @s_p_parse_pair_with_op(ptr noundef readonly captures(address_is_null) %0, ptr noundef %1, ptr noundef %2, i32 noundef %3) local_unnamed_addr #0 {
  %5 = alloca ptr, align 8
  %6 = alloca ptr, align 8
  store ptr %2, ptr %5, align 8
  call void @llvm.lifetime.start.p0(i64 8, ptr nonnull %6) #13
  %.not.i = icmp eq ptr %0, null
  br i1 %.not.i, label %.loopexit, label %7

7:                                                ; preds = %4
  %8 = load i8, ptr %1, align 1
  %.not8.i.i = icmp eq i8 %8, 0
  br i1 %.not8.i.i, label %_conf_hashtbl_index.exit.i, label %.lr.ph.i.i

.lr.ph.i.i:                                       ; preds = %7
  %9 = tail call ptr @__ctype_tolower_loc() #15
  %10 = load ptr, ptr %9, align 8
  br label %11

11:                                               ; preds = %11, %.lr.ph.i.i
  %12 = phi i8 [ %8, %.lr.ph.i.i ], [ %19, %11 ]
  %.010.i.i = phi ptr [ %1, %.lr.ph.i.i ], [ %18, %11 ]
  %.069.i.i = phi i32 [ 0, %.lr.ph.i.i ], [ %17, %11 ]
  %13 = sext i8 %12 to i64
  %14 = getelementptr inbounds i32, ptr %10, i64 %13
  %15 = load i32, ptr %14, align 4
  %16 = mul i32 %.069.i.i, 31
  %17 = add i32 %15, %16
  %18 = getelementptr inbounds nuw i8, ptr %.010.i.i, i64 1
  %19 = load i8, ptr %18, align 1
  %.not.i.i = icmp eq i8 %19, 0
  br i1 %.not.i.i, label %._crit_edge.loopexit.i.i, label %11, !llvm.loop !28

._crit_edge.loopexit.i.i:                         ; preds = %11
  %20 = urem i32 %17, 173
  %21 = zext nneg i32 %20 to i64
  br label %_conf_hashtbl_index.exit.i

_conf_hashtbl_index.exit.i:                       ; preds = %._crit_edge.loopexit.i.i, %7
  %.06.lcssa.i.i = phi i64 [ 0, %7 ], [ %21, %._crit_edge.loopexit.i.i ]
  %22 = getelementptr inbounds nuw i8, ptr %0, i64 64
  %23 = getelementptr inbounds nuw [173 x ptr], ptr %22, i64 0, i64 %.06.lcssa.i.i
  %.012.i = load ptr, ptr %23, align 8
  %.not1113.i = icmp eq ptr %.012.i, null
  br i1 %.not1113.i, label %.loopexit, label %.lr.ph.i

.lr.ph.i:                                         ; preds = %_conf_hashtbl_index.exit.i, %27
  %.014.i = phi ptr [ %.0.i, %27 ], [ %.012.i, %_conf_hashtbl_index.exit.i ]
  %24 = load ptr, ptr %.014.i, align 8
  %25 = tail call i32 @xstrcasecmp(ptr noundef %24, ptr noundef nonnull %1) #13
  %26 = icmp eq i32 %25, 0
  br i1 %26, label %_conf_hashtbl_lookup.exit, label %27

27:                                               ; preds = %.lr.ph.i
  %28 = getelementptr inbounds nuw i8, ptr %.014.i, i64 48
  %.0.i = load ptr, ptr %28, align 8
  %.not11.i = icmp eq ptr %.0.i, null
  br i1 %.not11.i, label %.loopexit, label %.lr.ph.i, !llvm.loop !29

.loopexit:                                        ; preds = %27, %4, %_conf_hashtbl_index.exit.i
  %29 = tail call i32 (ptr, ...) @error(ptr noundef nonnull @.str.15, ptr noundef nonnull @__func__.s_p_parse_pair_with_op, ptr noundef %1) #13
  br label %.sink.split

_conf_hashtbl_lookup.exit:                        ; preds = %.lr.ph.i
  %.not = icmp eq ptr %2, null
  br i1 %.not, label %30, label %32

30:                                               ; preds = %_conf_hashtbl_lookup.exit
  %31 = tail call i32 (ptr, ...) @error(ptr noundef nonnull @.str.16, ptr noundef nonnull @__func__.s_p_parse_pair_with_op, ptr noundef nonnull %1) #13
  br label %.sink.split

32:                                               ; preds = %_conf_hashtbl_lookup.exit
  %33 = getelementptr inbounds nuw i8, ptr %.014.i, i64 12
  store i32 %3, ptr %33, align 4
  %34 = load i8, ptr %2, align 1
  %cond34 = icmp eq i8 %34, 0
  br i1 %cond34, label %.preheader, label %.lr.ph

.lr.ph:                                           ; preds = %32
  %35 = tail call ptr @__ctype_b_loc() #15
  %.pre = load ptr, ptr %35, align 8
  br label %39

.preheader:                                       ; preds = %46, %32, %.critedge
  %36 = phi ptr [ %41, %.critedge ], [ %2, %32 ], [ %47, %46 ]
  store ptr %36, ptr %6, align 8
  %37 = load i8, ptr %36, align 1
  %.not2235 = icmp eq i8 %37, 0
  br i1 %.not2235, label %.critedge2, label %.lr.ph37

.lr.ph37:                                         ; preds = %.preheader
  %38 = tail call ptr @__ctype_b_loc() #15
  %.pre52 = load ptr, ptr %38, align 8
  br label %59

39:                                               ; preds = %.lr.ph, %46
  %40 = phi i8 [ %34, %.lr.ph ], [ %48, %46 ]
  %41 = phi ptr [ %2, %.lr.ph ], [ %47, %46 ]
  %42 = sext i8 %40 to i64
  %43 = getelementptr inbounds i16, ptr %.pre, i64 %42
  %44 = load i16, ptr %43, align 2
  %45 = and i16 %44, 8192
  %.not21 = icmp eq i16 %45, 0
  br i1 %.not21, label %.critedge, label %46

46:                                               ; preds = %39
  %47 = getelementptr inbounds nuw i8, ptr %41, i64 1
  store ptr %47, ptr %5, align 8
  %48 = load i8, ptr %47, align 1
  %cond = icmp eq i8 %48, 0
  br i1 %cond, label %.preheader, label %39, !llvm.loop !57

.critedge:                                        ; preds = %39
  %49 = icmp eq i8 %40, 34
  br i1 %49, label %50, label %.preheader

50:                                               ; preds = %.critedge
  %51 = getelementptr inbounds nuw i8, ptr %41, i64 1
  %52 = tail call ptr @strchr(ptr noundef nonnull dereferenceable(1) %51, i32 noundef 34) #14
  store ptr %52, ptr %6, align 8
  %53 = icmp eq ptr %52, null
  br i1 %53, label %54, label %.critedge2

54:                                               ; preds = %50
  %55 = tail call i32 (ptr, ...) @error(ptr noundef nonnull @.str.17, ptr noundef nonnull %1, ptr noundef nonnull %41) #13
  br label %.sink.split

56:                                               ; preds = %59
  %57 = getelementptr inbounds nuw i8, ptr %storemerge36, i64 1
  store ptr %57, ptr %6, align 8
  %58 = load i8, ptr %57, align 1
  %.not22 = icmp eq i8 %58, 0
  br i1 %.not22, label %.critedge2, label %59, !llvm.loop !58

59:                                               ; preds = %.lr.ph37, %56
  %60 = phi i8 [ %37, %.lr.ph37 ], [ %58, %56 ]
  %storemerge36 = phi ptr [ %36, %.lr.ph37 ], [ %57, %56 ]
  %61 = sext i8 %60 to i64
  %62 = getelementptr inbounds i16, ptr %.pre52, i64 %61
  %63 = load i16, ptr %62, align 2
  %64 = and i16 %63, 8192
  %.not23 = icmp eq i16 %64, 0
  br i1 %.not23, label %56, label %.critedge2

.critedge2:                                       ; preds = %56, %59, %.preheader, %50
  %65 = phi ptr [ %52, %50 ], [ %36, %.preheader ], [ %57, %56 ], [ %storemerge36, %59 ]
  %.0 = phi ptr [ %51, %50 ], [ %36, %.preheader ], [ %36, %59 ], [ %36, %56 ]
  %66 = ptrtoint ptr %65 to i64
  %67 = ptrtoint ptr %.0 to i64
  %68 = sub i64 %66, %67
  %69 = tail call ptr @xstrndup(ptr noundef nonnull %.0, i64 noundef %68) #13
  store ptr %69, ptr %5, align 8
  %70 = load i8, ptr %65, align 1
  %.not24 = icmp eq i8 %70, 0
  br i1 %.not24, label %.critedge4, label %71

71:                                               ; preds = %.critedge2
  %72 = getelementptr inbounds nuw i8, ptr %65, i64 1
  store ptr %72, ptr %6, align 8
  %.pre54 = load i8, ptr %72, align 1
  %.not2540 = icmp eq i8 %.pre54, 0
  br i1 %.not2540, label %.critedge4, label %.lr.ph41

.lr.ph41:                                         ; preds = %71
  %73 = tail call ptr @__ctype_b_loc() #15
  %.pre55 = load ptr, ptr %73, align 8
  br label %74

74:                                               ; preds = %.lr.ph41, %81
  %75 = phi i8 [ %.pre54, %.lr.ph41 ], [ %83, %81 ]
  %76 = phi ptr [ %72, %.lr.ph41 ], [ %82, %81 ]
  %77 = sext i8 %75 to i64
  %78 = getelementptr inbounds i16, ptr %.pre55, i64 %77
  %79 = load i16, ptr %78, align 2
  %80 = and i16 %79, 8192
  %.not26 = icmp eq i16 %80, 0
  br i1 %.not26, label %.critedge4, label %81

81:                                               ; preds = %74
  %82 = getelementptr inbounds nuw i8, ptr %76, i64 1
  store ptr %82, ptr %6, align 8
  %83 = load i8, ptr %82, align 1
  %.not25 = icmp eq i8 %83, 0
  br i1 %.not25, label %.critedge4, label %74, !llvm.loop !59

.critedge4:                                       ; preds = %74, %81, %.critedge2, %71
  %.lcssa = phi ptr [ %72, %71 ], [ %65, %.critedge2 ], [ %82, %81 ], [ %76, %74 ]
  %84 = call fastcc i32 @_handle_keyvalue_match(ptr noundef %.014.i, ptr noundef %69, ptr noundef nonnull %.lcssa, ptr noundef %6)
  %85 = icmp eq i32 %84, -1
  call void @slurm_xfree(ptr noundef nonnull %5) #13
  br i1 %85, label %.sink.split, label %87

.sink.split:                                      ; preds = %.critedge4, %.loopexit, %30, %54
  %86 = tail call ptr @__errno_location() #15
  store i32 22, ptr %86, align 4
  br label %87

87:                                               ; preds = %.sink.split, %.critedge4
  %.015 = phi i32 [ 1, %.critedge4 ], [ 0, %.sink.split ]
  call void @llvm.lifetime.end.p0(i64 8, ptr nonnull %6) #13
  ret i32 %.015
}